; Function Attrs: mustprogress null_pointer_is_valid sspstrong uwtable
define void @_ZN14ClickableLabelC2EP7QWidget(ptr noundef align 8 dereferenceable_or_null(40) %0, ptr noundef %1) unnamed_addr #0 align 2 personality ptr @__gxx_personality_v0 {
  %3 = alloca %class.QString, align 8
  %4 = alloca %class.QString, align 8
  tail call void @_ZN6QLabelC2EP7QWidget6QFlagsIN2Qt10WindowTypeEE(ptr noundef align 8 dereferenceable_or_null(40) %0, ptr noundef %1, i32 0)
  store ptr getelementptr inbounds nuw inrange(-16, 424) (i8, ptr @_ZTV14ClickableLabel, i64 16), ptr %0, align 8
  %5 = getelementptr inbounds nuw i8, ptr %0, i64 16
  store ptr getelementptr inbounds nuw inrange(-16, 64) (i8, ptr @_ZTV14ClickableLabel, i64 456), ptr %5, align 8
  invoke void @_ZN7QWidget15setMinimumWidthEi(ptr noundef align 8 dereferenceable_or_null(40) %0, i32 noundef 0)
          to label %6 unwind label %19

6:                                                ; preds = %2
  call void @llvm.lifetime.start.p0(i64 24, ptr nonnull %3) #6
  call void @llvm.memset.p0.i64(ptr noundef nonnull align 8 dereferenceable(24) dereferenceable_or_null(24) %3, i8 0, i64 24, i1 false)
  invoke void @_ZN6QLabel7setTextERK7QString(ptr noundef align 8 dereferenceable_or_null(40) %0, ptr noundef nonnull align 8 dereferenceable(24) %3)
          to label %7 unwind label %21

7:                                                ; preds = %6
  %8 = load ptr, ptr %3, align 8
  %.not.i.i.i = icmp eq ptr %8, null
  br i1 %.not.i.i.i, label %_ZN7QStringD2Ev.exit, label %_ZN17QArrayDataPointerIDsE5derefEv.exit.i.i

_ZN17QArrayDataPointerIDsE5derefEv.exit.i.i:      ; preds = %7
  %9 = atomicrmw sub ptr %8, i32 1 seq_cst, align 4
  %.not.i.i = icmp eq i32 %9, 1
  br i1 %.not.i.i, label %10, label %_ZN7QStringD2Ev.exit

10:                                               ; preds = %_ZN17QArrayDataPointerIDsE5derefEv.exit.i.i
  %11 = load ptr, ptr %3, align 8
  call void @_ZN10QArrayData10deallocateEPS_xx(ptr noundef %11, i64 noundef 2, i64 noundef 8) #6
  br label %_ZN7QStringD2Ev.exit

_ZN7QStringD2Ev.exit:                             ; preds = %7, %_ZN17QArrayDataPointerIDsE5derefEv.exit.i.i, %10
  call void @llvm.lifetime.end.p0(i64 24, ptr nonnull %3) #6
  call void @llvm.lifetime.start.p0(i64 24, ptr nonnull %4) #6
  store ptr null, ptr %4, align 8
  %12 = getelementptr inbounds nuw i8, ptr %4, i64 8
  store ptr @.str, ptr %12, align 8
  %13 = getelementptr inbounds nuw i8, ptr %4, i64 16
  store i64 31, ptr %13, align 8
  invoke void @_ZN7QWidget13setStyleSheetERK7QString(ptr noundef align 8 dereferenceable_or_null(40) %0, ptr noundef nonnull align 8 dereferenceable(24) %4)
          to label %14 unwind label %27

14:                                               ; preds = %_ZN7QStringD2Ev.exit
  %15 = load ptr, ptr %4, align 8
  %.not.i.i.i5 = icmp eq ptr %15, null
  br i1 %.not.i.i.i5, label %_ZN17QArrayDataPointerIDsED2Ev.exit, label %_ZN17QArrayDataPointerIDsE5derefEv.exit.i.i6

_ZN17QArrayDataPointerIDsE5derefEv.exit.i.i6:     ; preds = %14
  %16 = atomicrmw sub ptr %15, i32 1 seq_cst, align 4
  %.not.i.i7 = icmp eq i32 %16, 1
  br i1 %.not.i.i7, label %17, label %_ZN17QArrayDataPointerIDsED2Ev.exit

17:                                               ; preds = %_ZN17QArrayDataPointerIDsE5derefEv.exit.i.i6
  %18 = load ptr, ptr %4, align 8
  call void @_ZN10QArrayData10deallocateEPS_xx(ptr noundef %18, i64 noundef 2, i64 noundef 8) #6
  br label %_ZN17QArrayDataPointerIDsED2Ev.exit

_ZN17QArrayDataPointerIDsED2Ev.exit:              ; preds = %17, %_ZN17QArrayDataPointerIDsE5derefEv.exit.i.i6, %14
  call void @llvm.lifetime.end.p0(i64 24, ptr nonnull %4) #6
  ret void

19:                                               ; preds = %2
  %20 = landingpad { ptr, i32 }
          cleanup
  br label %33

21:                                               ; preds = %6
  %22 = landingpad { ptr, i32 }
          cleanup
  %23 = load ptr, ptr %3, align 8
  %.not.i.i.i10 = icmp eq ptr %23, null
  br i1 %.not.i.i.i10, label %_ZN7QStringD2Ev.exit13, label %_ZN17QArrayDataPointerIDsE5derefEv.exit.i.i11

_ZN17QArrayDataPointerIDsE5derefEv.exit.i.i11:    ; preds = %21
  %24 = atomicrmw sub ptr %23, i32 1 seq_cst, align 4
  %.not.i.i12 = icmp eq i32 %24, 1
  br i1 %.not.i.i12, label %25, label %_ZN7QStringD2Ev.exit13

25:                                               ; preds = %_ZN17QArrayDataPointerIDsE5derefEv.exit.i.i11
  %26 = load ptr, ptr %3, align 8
  call void @_ZN10QArrayData10deallocateEPS_xx(ptr noundef %26, i64 noundef 2, i64 noundef 8) #6
  br label %_ZN7QStringD2Ev.exit13

_ZN7QStringD2Ev.exit13:                           ; preds = %21, %_ZN17QArrayDataPointerIDsE5derefEv.exit.i.i11, %25
  call void @llvm.lifetime.end.p0(i64 24, ptr nonnull %3) #6
  br label %33

27:                                               ; preds = %_ZN7QStringD2Ev.exit
  %28 = landingpad { ptr, i32 }
          cleanup
  %29 = load ptr, ptr %4, align 8
  %.not.i.i.i14 = icmp eq ptr %29, null
  br i1 %.not.i.i.i14, label %_ZN17QArrayDataPointerIDsED2Ev.exit21, label %_ZN17QArrayDataPointerIDsE5derefEv.exit.i.i15

_ZN17QArrayDataPointerIDsE5derefEv.exit.i.i15:    ; preds = %27
  %30 = atomicrmw sub ptr %29, i32 1 seq_cst, align 4
  %.not.i.i16 = icmp eq i32 %30, 1
  br i1 %.not.i.i16, label %31, label %_ZN17QArrayDataPointerIDsED2Ev.exit21

31:                                               ; preds = %_ZN17QArrayDataPointerIDsE5derefEv.exit.i.i15
  %32 = load ptr, ptr %4, align 8
  call void @_ZN10QArrayData10deallocateEPS_xx(ptr noundef %32, i64 noundef 2, i64 noundef 8) #6
  br label %_ZN17QArrayDataPointerIDsED2Ev.exit21

_ZN17QArrayDataPointerIDsED2Ev.exit21:            ; preds = %31, %_ZN17QArrayDataPointerIDsE5derefEv.exit.i.i15, %27
  call void @llvm.lifetime.end.p0(i64 24, ptr nonnull %4) #6
  br label %33

33:                                               ; preds = %_ZN17QArrayDataPointerIDsED2Ev.exit21, %_ZN7QStringD2Ev.exit13, %19
  %.pn = phi { ptr, i32 } [ %28, %_ZN17QArrayDataPointerIDsED2Ev.exit21 ], [ %22, %_ZN7QStringD2Ev.exit13 ], [ %20, %19 ]
  call void @_ZN6QLabelD2Ev(ptr noundef align 8 dereferenceable_or_null(40) %0) #6
  resume { ptr, i32 } %.pn
}